target datalayout = "e-m:e-p270:32:32-p271:32:32-p272:64:64-i64:64-i128:128-f80:128-n8:16:32:64-S128"
target triple = "x86_64-pc-linux-gnu"

%struct.Agobj_s = type { %struct.Agtag_s, ptr }
%struct.Agtag_s = type { i32, i64 }
%struct.Agrec_s = type { ptr, ptr }
%struct.boxf = type { %struct.pointf_s, %struct.pointf_s }
%struct.pointf_s = type { double, double }
%struct.Agnodeinfo_t = type { %struct.Agrec_s, ptr, ptr, %struct.pointf_s, double, double, %struct.boxf, double, double, double, double, double, ptr, ptr, ptr, i8, i8, i8, i8, i32, i32, i32, ptr, double, i8, i8, ptr, ptr, i8, i64, i8, i8, i8, ptr, ptr, %struct.elist, %struct.elist, %struct.elist, %struct.elist, %struct.elist, ptr, i32, ptr, i32, i32, double, %struct.elist, %struct.elist, %struct.elist, %struct.elist, ptr, i32, i32, i32, [1 x double] }
%struct.elist = type { ptr, i64 }
%struct.Agedge_s = type { %struct.Agobj_s, %struct.dtlink_s_, %struct.dtlink_s_, ptr }
%struct.dtlink_s_ = type { ptr, %union.anon }
%union.anon = type { ptr }

; Function Attrs: nounwind uwtable
define internal void @findlr(ptr noundef %0, ptr noundef %1, ptr noundef %2, ptr noundef %3) #0 {
  %5 = alloca ptr, align 8
  %6 = alloca ptr, align 8
  %7 = alloca ptr, align 8
  %8 = alloca ptr, align 8
  %9 = alloca i32, align 4
  %10 = alloca i32, align 4
  %11 = alloca [4 x i8], align 1
  store ptr %0, ptr %5, align 8, !tbaa !34
  store ptr %1, ptr %6, align 8, !tbaa !34
  store ptr %2, ptr %7, align 8, !tbaa !122
  store ptr %3, ptr %8, align 8, !tbaa !122
  call void @llvm.lifetime.start.p0(i64 4, ptr %9) #11
  call void @llvm.lifetime.start.p0(i64 4, ptr %10) #11
  %12 = load ptr, ptr %5, align 8, !tbaa !34
  %13 = getelementptr inbounds nuw %struct.Agobj_s, ptr %12, i32 0, i32 1
  %14 = load ptr, ptr %13, align 8, !tbaa !10
  %15 = getelementptr inbounds nuw %struct.Agnodeinfo_t, ptr %14, i32 0, i32 44
  %16 = load i32, ptr %15, align 4, !tbaa !86
  store i32 %16, ptr %9, align 4, !tbaa !61
  %17 = load ptr, ptr %6, align 8, !tbaa !34
  %18 = getelementptr inbounds nuw %struct.Agobj_s, ptr %17, i32 0, i32 1
  %19 = load ptr, ptr %18, align 8, !tbaa !10
  %20 = getelementptr inbounds nuw %struct.Agnodeinfo_t, ptr %19, i32 0, i32 44
  %21 = load i32, ptr %20, align 4, !tbaa !86
  store i32 %21, ptr %10, align 4, !tbaa !61
  %22 = load i32, ptr %9, align 4, !tbaa !61
  %23 = load i32, ptr %10, align 4, !tbaa !61
  %24 = icmp sgt i32 %22, %23
  br i1 %24, label %25, label %32

25:                                               ; preds = %4
  br label %26

26:                                               ; preds = %25
  call void @llvm.lifetime.start.p0(i64 4, ptr %11) #11
  %27 = getelementptr inbounds [4 x i8], ptr %11, i64 0, i64 0
  call void @llvm.memcpy.p0.p0.i64(ptr align 1 %27, ptr align 4 %9, i64 4, i1 false)
  %28 = load i32, ptr %10, align 4, !tbaa !61
  store i32 %28, ptr %9, align 4, !tbaa !61
  %29 = getelementptr inbounds [4 x i8], ptr %11, i64 0, i64 0
  call void @llvm.memcpy.p0.p0.i64(ptr align 4 %10, ptr align 1 %29, i64 4, i1 false)
  call void @llvm.lifetime.end.p0(i64 4, ptr %11) #11
  br label %30

30:                                               ; preds = %26
  br label %31

31:                                               ; preds = %30
  br label %32

32:                                               ; preds = %31, %4
  %33 = load i32, ptr %9, align 4, !tbaa !61
  %34 = load ptr, ptr %7, align 8, !tbaa !122
  store i32 %33, ptr %34, align 4, !tbaa !61
  %35 = load i32, ptr %10, align 4, !tbaa !61
  %36 = load ptr, ptr %8, align 8, !tbaa !122
  store i32 %35, ptr %36, align 4, !tbaa !61
  call void @llvm.lifetime.end.p0(i64 4, ptr %10) #11
  call void @llvm.lifetime.end.p0(i64 4, ptr %9) #11
  ret void
}

; Function Attrs: nounwind uwtable
define internal void @setbounds(ptr noundef %0, ptr noundef %1, i32 noundef %2, i32 noundef %3) #0 {
  %5 = alloca ptr, align 8
  %6 = alloca ptr, align 8
  %7 = alloca i32, align 4
  %8 = alloca i32, align 4
  %9 = alloca i32, align 4
  %10 = alloca i32, align 4
  %11 = alloca i32, align 4
  %12 = alloca i32, align 4
  %13 = alloca ptr, align 8
  %14 = alloca i8, align 1
  %15 = alloca i8, align 1
  store ptr %0, ptr %5, align 8, !tbaa !34
  store ptr %1, ptr %6, align 8, !tbaa !122
  store i32 %2, ptr %7, align 4, !tbaa !61
  store i32 %3, ptr %8, align 4, !tbaa !61
  call void @llvm.lifetime.start.p0(i64 4, ptr %9) #11
  call void @llvm.lifetime.start.p0(i64 4, ptr %10) #11
  call void @llvm.lifetime.start.p0(i64 4, ptr %11) #11
  call void @llvm.lifetime.start.p0(i64 4, ptr %12) #11
  call void @llvm.lifetime.start.p0(i64 8, ptr %13) #11
  %16 = load ptr, ptr %5, align 8, !tbaa !34
  %17 = getelementptr inbounds nuw %struct.Agobj_s, ptr %16, i32 0, i32 1
  %18 = load ptr, ptr %17, align 8, !tbaa !10
  %19 = getelementptr inbounds nuw %struct.Agnodeinfo_t, ptr %18, i32 0, i32 28
  %20 = load i8, ptr %19, align 8, !tbaa !88
  %21 = sext i8 %20 to i32
  %22 = icmp eq i32 %21, 1
  br i1 %22, label %23, label %256

23:                                               ; preds = %4
  %24 = load ptr, ptr %5, align 8, !tbaa !34
  %25 = getelementptr inbounds nuw %struct.Agobj_s, ptr %24, i32 0, i32 1
  %26 = load ptr, ptr %25, align 8, !tbaa !10
  %27 = getelementptr inbounds nuw %struct.Agnodeinfo_t, ptr %26, i32 0, i32 44
  %28 = load i32, ptr %27, align 4, !tbaa !86
  store i32 %28, ptr %12, align 4, !tbaa !61
  %29 = load ptr, ptr %5, align 8, !tbaa !34
  %30 = getelementptr inbounds nuw %struct.Agobj_s, ptr %29, i32 0, i32 1
  %31 = load ptr, ptr %30, align 8, !tbaa !10
  %32 = getelementptr inbounds nuw %struct.Agnodeinfo_t, ptr %31, i32 0, i32 35
  %33 = getelementptr inbounds nuw %struct.elist, ptr %32, i32 0, i32 1
  %34 = load i64, ptr %33, align 8, !tbaa !124
  %35 = icmp eq i64 %34, 0
  br i1 %35, label %36, label %171

36:                                               ; preds = %23
  %37 = load ptr, ptr %5, align 8, !tbaa !34
  %38 = getelementptr inbounds nuw %struct.Agobj_s, ptr %37, i32 0, i32 1
  %39 = load ptr, ptr %38, align 8, !tbaa !10
  %40 = getelementptr inbounds nuw %struct.Agnodeinfo_t, ptr %39, i32 0, i32 36
  %41 = getelementptr inbounds nuw %struct.elist, ptr %40, i32 0, i32 0
  %42 = load ptr, ptr %41, align 8, !tbaa !125
  %43 = getelementptr inbounds ptr, ptr %42, i64 0
  %44 = load ptr, ptr %43, align 8, !tbaa !43
  %45 = getelementptr inbounds nuw %struct.Agobj_s, ptr %44, i32 0, i32 0
  %46 = load i32, ptr %45, align 8
  %47 = and i32 %46, 3
  %48 = icmp eq i32 %47, 2
  br i1 %48, label %49, label %58

49:                                               ; preds = %36
  %50 = load ptr, ptr %5, align 8, !tbaa !34
  %51 = getelementptr inbounds nuw %struct.Agobj_s, ptr %50, i32 0, i32 1
  %52 = load ptr, ptr %51, align 8, !tbaa !10
  %53 = getelementptr inbounds nuw %struct.Agnodeinfo_t, ptr %52, i32 0, i32 36
  %54 = getelementptr inbounds nuw %struct.elist, ptr %53, i32 0, i32 0
  %55 = load ptr, ptr %54, align 8, !tbaa !125
  %56 = getelementptr inbounds ptr, ptr %55, i64 0
  %57 = load ptr, ptr %56, align 8, !tbaa !43
  br label %68

58:                                               ; preds = %36
  %59 = load ptr, ptr %5, align 8, !tbaa !34
  %60 = getelementptr inbounds nuw %struct.Agobj_s, ptr %59, i32 0, i32 1
  %61 = load ptr, ptr %60, align 8, !tbaa !10
  %62 = getelementptr inbounds nuw %struct.Agnodeinfo_t, ptr %61, i32 0, i32 36
  %63 = getelementptr inbounds nuw %struct.elist, ptr %62, i32 0, i32 0
  %64 = load ptr, ptr %63, align 8, !tbaa !125
  %65 = getelementptr inbounds ptr, ptr %64, i64 0
  %66 = load ptr, ptr %65, align 8, !tbaa !43
  %67 = getelementptr inbounds %struct.Agedge_s, ptr %66, i64 -1
  br label %68

68:                                               ; preds = %58, %49
  %69 = phi ptr [ %57, %49 ], [ %67, %58 ]
  %70 = getelementptr inbounds nuw %struct.Agedge_s, ptr %69, i32 0, i32 3
  %71 = load ptr, ptr %70, align 8, !tbaa !48
  %72 = load ptr, ptr %5, align 8, !tbaa !34
  %73 = getelementptr inbounds nuw %struct.Agobj_s, ptr %72, i32 0, i32 1
  %74 = load ptr, ptr %73, align 8, !tbaa !10
  %75 = getelementptr inbounds nuw %struct.Agnodeinfo_t, ptr %74, i32 0, i32 36
  %76 = getelementptr inbounds nuw %struct.elist, ptr %75, i32 0, i32 0
  %77 = load ptr, ptr %76, align 8, !tbaa !125
  %78 = getelementptr inbounds ptr, ptr %77, i64 1
  %79 = load ptr, ptr %78, align 8, !tbaa !43
  %80 = getelementptr inbounds nuw %struct.Agobj_s, ptr %79, i32 0, i32 0
  %81 = load i32, ptr %80, align 8
  %82 = and i32 %81, 3
  %83 = icmp eq i32 %82, 2
  br i1 %83, label %84, label %93

84:                                               ; preds = %68
  %85 = load ptr, ptr %5, align 8, !tbaa !34
  %86 = getelementptr inbounds nuw %struct.Agobj_s, ptr %85, i32 0, i32 1
  %87 = load ptr, ptr %86, align 8, !tbaa !10
  %88 = getelementptr inbounds nuw %struct.Agnodeinfo_t, ptr %87, i32 0, i32 36
  %89 = getelementptr inbounds nuw %struct.elist, ptr %88, i32 0, i32 0
  %90 = load ptr, ptr %89, align 8, !tbaa !125
  %91 = getelementptr inbounds ptr, ptr %90, i64 1
  %92 = load ptr, ptr %91, align 8, !tbaa !43
  br label %103

93:                                               ; preds = %68
  %94 = load ptr, ptr %5, align 8, !tbaa !34
  %95 = getelementptr inbounds nuw %struct.Agobj_s, ptr %94, i32 0, i32 1
  %96 = load ptr, ptr %95, align 8, !tbaa !10
  %97 = getelementptr inbounds nuw %struct.Agnodeinfo_t, ptr %96, i32 0, i32 36
  %98 = getelementptr inbounds nuw %struct.elist, ptr %97, i32 0, i32 0
  %99 = load ptr, ptr %98, align 8, !tbaa !125
  %100 = getelementptr inbounds ptr, ptr %99, i64 1
  %101 = load ptr, ptr %100, align 8, !tbaa !43
  %102 = getelementptr inbounds %struct.Agedge_s, ptr %101, i64 -1
  br label %103

103:                                              ; preds = %93, %84
  %104 = phi ptr [ %92, %84 ], [ %102, %93 ]
  %105 = getelementptr inbounds nuw %struct.Agedge_s, ptr %104, i32 0, i32 3
  %106 = load ptr, ptr %105, align 8, !tbaa !48
  call void @findlr(ptr noundef %71, ptr noundef %106, ptr noundef %10, ptr noundef %11)
  %107 = load i32, ptr %11, align 4, !tbaa !61
  %108 = load i32, ptr %7, align 4, !tbaa !61
  %109 = icmp sle i32 %107, %108
  br i1 %109, label %110, label %116

110:                                              ; preds = %103
  %111 = load i32, ptr %12, align 4, !tbaa !61
  %112 = load ptr, ptr %6, align 8, !tbaa !122
  %113 = getelementptr inbounds i32, ptr %112, i64 0
  store i32 %111, ptr %113, align 4, !tbaa !61
  %114 = load ptr, ptr %6, align 8, !tbaa !122
  %115 = getelementptr inbounds i32, ptr %114, i64 2
  store i32 %111, ptr %115, align 4, !tbaa !61
  br label %170

116:                                              ; preds = %103
  %117 = load i32, ptr %10, align 4, !tbaa !61
  %118 = load i32, ptr %8, align 4, !tbaa !61
  %119 = icmp sge i32 %117, %118
  br i1 %119, label %120, label %126

120:                                              ; preds = %116
  %121 = load i32, ptr %12, align 4, !tbaa !61
  %122 = load ptr, ptr %6, align 8, !tbaa !122
  %123 = getelementptr inbounds i32, ptr %122, i64 1
  store i32 %121, ptr %123, align 4, !tbaa !61
  %124 = load ptr, ptr %6, align 8, !tbaa !122
  %125 = getelementptr inbounds i32, ptr %124, i64 3
  store i32 %121, ptr %125, align 4, !tbaa !61
  br label %169

126:                                              ; preds = %116
  %127 = load i32, ptr %10, align 4, !tbaa !61
  %128 = load i32, ptr %7, align 4, !tbaa !61
  %129 = icmp slt i32 %127, %128
  br i1 %129, label %130, label %135

130:                                              ; preds = %126
  %131 = load i32, ptr %11, align 4, !tbaa !61
  %132 = load i32, ptr %8, align 4, !tbaa !61
  %133 = icmp sgt i32 %131, %132
  br i1 %133, label %134, label %135

134:                                              ; preds = %130
  br label %168

135:                                              ; preds = %130, %126
  %136 = load i32, ptr %10, align 4, !tbaa !61
  %137 = load i32, ptr %7, align 4, !tbaa !61
  %138 = icmp slt i32 %136, %137
  br i1 %138, label %147, label %139

139:                                              ; preds = %135
  %140 = load i32, ptr %10, align 4, !tbaa !61
  %141 = load i32, ptr %7, align 4, !tbaa !61
  %142 = icmp eq i32 %140, %141
  br i1 %142, label %143, label %151

143:                                              ; preds = %139
  %144 = load i32, ptr %11, align 4, !tbaa !61
  %145 = load i32, ptr %8, align 4, !tbaa !61
  %146 = icmp slt i32 %144, %145
  br i1 %146, label %147, label %151

147:                                              ; preds = %143, %135
  %148 = load i32, ptr %12, align 4, !tbaa !61
  %149 = load ptr, ptr %6, align 8, !tbaa !122
  %150 = getelementptr inbounds i32, ptr %149, i64 2
  store i32 %148, ptr %150, align 4, !tbaa !61
  br label %151

151:                                              ; preds = %147, %143, %139
  %152 = load i32, ptr %11, align 4, !tbaa !61
  %153 = load i32, ptr %8, align 4, !tbaa !61
  %154 = icmp sgt i32 %152, %153
  br i1 %154, label %163, label %155

155:                                              ; preds = %151
  %156 = load i32, ptr %11, align 4, !tbaa !61
  %157 = load i32, ptr %8, align 4, !tbaa !61
  %158 = icmp eq i32 %156, %157
  br i1 %158, label %159, label %167

159:                                              ; preds = %155
  %160 = load i32, ptr %10, align 4, !tbaa !61
  %161 = load i32, ptr %7, align 4, !tbaa !61
  %162 = icmp sgt i32 %160, %161
  br i1 %162, label %163, label %167

163:                                              ; preds = %159, %151
  %164 = load i32, ptr %12, align 4, !tbaa !61
  %165 = load ptr, ptr %6, align 8, !tbaa !122
  %166 = getelementptr inbounds i32, ptr %165, i64 3
  store i32 %164, ptr %166, align 4, !tbaa !61
  br label %167

167:                                              ; preds = %163, %159, %155
  br label %168

168:                                              ; preds = %167, %134
  br label %169

169:                                              ; preds = %168, %120
  br label %170

170:                                              ; preds = %169, %110
  br label %255

171:                                              ; preds = %23
  call void @llvm.lifetime.start.p0(i64 1, ptr %14) #11
  call void @llvm.lifetime.start.p0(i64 1, ptr %15) #11
  store i8 0, ptr %15, align 1, !tbaa !8
  store i8 0, ptr %14, align 1, !tbaa !8
  store i32 0, ptr %9, align 4, !tbaa !61
  br label %172

172:                                              ; preds = %229, %171
  %173 = load ptr, ptr %5, align 8, !tbaa !34
  %174 = getelementptr inbounds nuw %struct.Agobj_s, ptr %173, i32 0, i32 1
  %175 = load ptr, ptr %174, align 8, !tbaa !10
  %176 = getelementptr inbounds nuw %struct.Agnodeinfo_t, ptr %175, i32 0, i32 36
  %177 = getelementptr inbounds nuw %struct.elist, ptr %176, i32 0, i32 0
  %178 = load ptr, ptr %177, align 8, !tbaa !125
  %179 = load i32, ptr %9, align 4, !tbaa !61
  %180 = sext i32 %179 to i64
  %181 = getelementptr inbounds ptr, ptr %178, i64 %180
  %182 = load ptr, ptr %181, align 8, !tbaa !43
  store ptr %182, ptr %13, align 8, !tbaa !43
  %183 = icmp ne ptr %182, null
  br i1 %183, label %184, label %232

184:                                              ; preds = %172
  %185 = load ptr, ptr %13, align 8, !tbaa !43
  %186 = getelementptr inbounds nuw %struct.Agobj_s, ptr %185, i32 0, i32 0
  %187 = load i32, ptr %186, align 8
  %188 = and i32 %187, 3
  %189 = icmp eq i32 %188, 2
  br i1 %189, label %190, label %192

190:                                              ; preds = %184
  %191 = load ptr, ptr %13, align 8, !tbaa !43
  br label %195

192:                                              ; preds = %184
  %193 = load ptr, ptr %13, align 8, !tbaa !43
  %194 = getelementptr inbounds %struct.Agedge_s, ptr %193, i64 -1
  br label %195

195:                                              ; preds = %192, %190
  %196 = phi ptr [ %191, %190 ], [ %194, %192 ]
  %197 = getelementptr inbounds nuw %struct.Agedge_s, ptr %196, i32 0, i32 3
  %198 = load ptr, ptr %197, align 8, !tbaa !48
  %199 = getelementptr inbounds nuw %struct.Agobj_s, ptr %198, i32 0, i32 1
  %200 = load ptr, ptr %199, align 8, !tbaa !10
  %201 = getelementptr inbounds nuw %struct.Agnodeinfo_t, ptr %200, i32 0, i32 44
  %202 = load i32, ptr %201, align 4, !tbaa !86
  %203 = load i32, ptr %7, align 4, !tbaa !61
  %204 = icmp sle i32 %202, %203
  br i1 %204, label %205, label %206

205:                                              ; preds = %195
  store i8 1, ptr %14, align 1, !tbaa !8
  br label %229

206:                                              ; preds = %195
  %207 = load ptr, ptr %13, align 8, !tbaa !43
  %208 = getelementptr inbounds nuw %struct.Agobj_s, ptr %207, i32 0, i32 0
  %209 = load i32, ptr %208, align 8
  %210 = and i32 %209, 3
  %211 = icmp eq i32 %210, 2
  br i1 %211, label %212, label %214

212:                                              ; preds = %206
  %213 = load ptr, ptr %13, align 8, !tbaa !43
  br label %217

214:                                              ; preds = %206
  %215 = load ptr, ptr %13, align 8, !tbaa !43
  %216 = getelementptr inbounds %struct.Agedge_s, ptr %215, i64 -1
  br label %217

217:                                              ; preds = %214, %212
  %218 = phi ptr [ %213, %212 ], [ %216, %214 ]
  %219 = getelementptr inbounds nuw %struct.Agedge_s, ptr %218, i32 0, i32 3
  %220 = load ptr, ptr %219, align 8, !tbaa !48
  %221 = getelementptr inbounds nuw %struct.Agobj_s, ptr %220, i32 0, i32 1
  %222 = load ptr, ptr %221, align 8, !tbaa !10
  %223 = getelementptr inbounds nuw %struct.Agnodeinfo_t, ptr %222, i32 0, i32 44
  %224 = load i32, ptr %223, align 4, !tbaa !86
  %225 = load i32, ptr %8, align 4, !tbaa !61
  %226 = icmp sge i32 %224, %225
  br i1 %226, label %227, label %228

227:                                              ; preds = %217
  store i8 1, ptr %15, align 1, !tbaa !8
  br label %229

228:                                              ; preds = %217
  br label %229

229:                                              ; preds = %228, %227, %205
  %230 = load i32, ptr %9, align 4, !tbaa !61
  %231 = add nsw i32 %230, 1
  store i32 %231, ptr %9, align 4, !tbaa !61
  br label %172, !llvm.loop !126

232:                                              ; preds = %172
  %233 = load i8, ptr %14, align 1, !tbaa !8, !range !72, !noundef !73
  %234 = trunc i8 %233 to i1
  br i1 %234, label %235, label %243

235:                                              ; preds = %232
  %236 = load i8, ptr %15, align 1, !tbaa !8, !range !72, !noundef !73
  %237 = trunc i8 %236 to i1
  br i1 %237, label %243, label %238

238:                                              ; preds = %235
  %239 = load i32, ptr %12, align 4, !tbaa !61
  %240 = add nsw i32 %239, 1
  %241 = load ptr, ptr %6, align 8, !tbaa !122
  %242 = getelementptr inbounds i32, ptr %241, i64 0
  store i32 %240, ptr %242, align 4, !tbaa !61
  br label %243

243:                                              ; preds = %238, %235, %232
  %244 = load i8, ptr %15, align 1, !tbaa !8, !range !72, !noundef !73
  %245 = trunc i8 %244 to i1
  br i1 %245, label %246, label %254

246:                                              ; preds = %243
  %247 = load i8, ptr %14, align 1, !tbaa !8, !range !72, !noundef !73
  %248 = trunc i8 %247 to i1
  br i1 %248, label %254, label %249

249:                                              ; preds = %246
  %250 = load i32, ptr %12, align 4, !tbaa !61
  %251 = sub nsw i32 %250, 1
  %252 = load ptr, ptr %6, align 8, !tbaa !122
  %253 = getelementptr inbounds i32, ptr %252, i64 1
  store i32 %251, ptr %253, align 4, !tbaa !61
  br label %254

254:                                              ; preds = %249, %246, %243
  call void @llvm.lifetime.end.p0(i64 1, ptr %15) #11
  call void @llvm.lifetime.end.p0(i64 1, ptr %14) #11
  br label %255

255:                                              ; preds = %254, %170
  br label %256

256:                                              ; preds = %255, %4
  call void @llvm.lifetime.end.p0(i64 8, ptr %13) #11
  call void @llvm.lifetime.end.p0(i64 4, ptr %12) #11
  call void @llvm.lifetime.end.p0(i64 4, ptr %11) #11
  call void @llvm.lifetime.end.p0(i64 4, ptr %10) #11
  call void @llvm.lifetime.end.p0(i64 4, ptr %9) #11
  ret void
}